; Function Attrs: mustprogress uwtable
define noundef range(i64 -2147483648, 2147483648) i64 @_Z15logged_rv32i_orP11processor_t6insn_tm(ptr noundef %0, i64 %1, i64 noundef %2) local_unnamed_addr #6 {
  %4 = alloca i64, align 8
  %5 = getelementptr inbounds nuw i8, ptr %0, i64 256
  %6 = lshr i64 %1, 15
  %7 = and i64 %6, 31
  %8 = getelementptr inbounds nuw [32 x i64], ptr %5, i64 0, i64 %7
  %9 = load i64, ptr %8, align 8, !tbaa !3
  %10 = lshr i64 %1, 20
  %11 = and i64 %10, 31
  %12 = getelementptr inbounds nuw [32 x i64], ptr %5, i64 0, i64 %11
  %13 = load i64, ptr %12, align 8, !tbaa !3
  %14 = or i64 %13, %9
  %15 = getelementptr inbounds nuw i8, ptr %0, i64 3840
  call void @llvm.lifetime.start.p0(i64 8, ptr nonnull %4) #15
  %16 = lshr i64 %1, 7
  %17 = and i64 %16, 31
  %18 = shl nuw nsw i64 %17, 4
  store i64 %18, ptr %4, align 8, !tbaa !3
  %19 = call noundef nonnull align 8 dereferenceable(16) ptr @_ZNSt3mapIm10float128_tSt4lessImESaISt4pairIKmS0_EEEixEOm(ptr noundef nonnull align 8 dereferenceable(48) %15, ptr noundef nonnull align 8 dereferenceable(8) %4)
  store i64 %14, ptr %19, align 8
  %.sroa.4.0..sroa_idx = getelementptr inbounds nuw i8, ptr %19, i64 8
  store i64 0, ptr %.sroa.4.0..sroa_idx, align 8, !tbaa !7
  call void @llvm.lifetime.end.p0(i64 8, ptr nonnull %4) #15
  %.not.i = icmp eq i64 %17, 0
  br i1 %.not.i, label %_ZN9regfile_tImLm32ELb1EE5writeEmm.exit, label %20

20:                                               ; preds = %3
  %21 = getelementptr inbounds nuw [32 x i64], ptr %5, i64 0, i64 %17
  store i64 %14, ptr %21, align 8, !tbaa !3
  br label %_ZN9regfile_tImLm32ELb1EE5writeEmm.exit

_ZN9regfile_tImLm32ELb1EE5writeEmm.exit:          ; preds = %3, %20
  %22 = shl i64 %2, 32
  %23 = add i64 %22, 17179869184
  %24 = ashr exact i64 %23, 32
  ret i64 %24
}